; Function Attrs: nounwind sspstrong uwtable
define dso_local range(i32 -2147483648, 1) i32 @qed_write_l1_table(ptr noundef %s, i32 noundef %index, i32 noundef %n) #0 {
entry:
  %0 = load ptr, ptr %s, align 8
  %file = getelementptr inbounds nuw i8, ptr %0, i64 16840
  %1 = load ptr, ptr %file, align 8
  %tobool.not = icmp eq ptr %1, null
  br i1 %tobool.not, label %do.end, label %if.then

if.then:                                          ; preds = %entry
  %2 = load ptr, ptr %1, align 8
  tail call void @bdrv_co_debug_event(ptr noundef %2, i32 noundef 0) #6
  br label %do.end

do.end:                                           ; preds = %entry, %if.then
  %l1_table_offset = getelementptr inbounds nuw i8, ptr %s, i64 48
  %3 = load i64, ptr %l1_table_offset, align 8
  %l1_table = getelementptr inbounds nuw i8, ptr %s, i64 120
  %4 = load ptr, ptr %l1_table, align 8
  %call = tail call i32 @qed_write_table(ptr noundef nonnull %s, i64 noundef %3, ptr noundef %4, i32 noundef %index, i32 noundef %n, i1 noundef zeroext false)
  ret i32 %call
}